target datalayout = "e-m:e-p270:32:32-p271:32:32-p272:64:64-i64:64-i128:128-f80:128-n8:16:32:64-S128"
target triple = "x86_64-pc-linux-gnu"

%class.DissectorTablesItem = type { %class.ModelHelperTreeItem, %class.QString, %class.QString }
%class.ModelHelperTreeItem = type { ptr, ptr, %class.QList }
%class.QList = type { %struct.QArrayDataPointer.0 }
%struct.QArrayDataPointer.0 = type { ptr, ptr, i64 }
%class.QString = type { %struct.QArrayDataPointer }
%struct.QArrayDataPointer = type { ptr, ptr, i64 }
%class.IntegerTablesItem = type <{ %class.DissectorTablesItem, i32, [4 x i8] }>

; Function Attrs: mustprogress null_pointer_is_valid sspstrong uwtable
define noundef zeroext i1 @_ZNK17IntegerTablesItem8lessThanER19DissectorTablesItem(ptr noundef align 8 dereferenceable_or_null(92) %0, ptr noundef align 8 dereferenceable(88) %1) unnamed_addr #0 align 2 {
  %3 = alloca i1, align 1
  %4 = alloca ptr, align 8
  %5 = alloca ptr, align 8
  store ptr %0, ptr %4, align 8
  store ptr %1, ptr %5, align 8
  %6 = load ptr, ptr %4, align 8
  %7 = getelementptr inbounds nuw %class.IntegerTablesItem, ptr %6, i32 0, i32 1
  %8 = load i32, ptr %7, align 8
  %9 = load ptr, ptr %5, align 8
  %10 = getelementptr inbounds nuw %class.IntegerTablesItem, ptr %9, i32 0, i32 1
  %11 = load i32, ptr %10, align 8
  %12 = icmp eq i32 %8, %11
  br i1 %12, label %13, label %16

13:                                               ; preds = %2
  %14 = load ptr, ptr %5, align 8
  %15 = call noundef zeroext i1 @_ZNK19DissectorTablesItem8lessThanERS_(ptr noundef align 8 dereferenceable_or_null(88) %6, ptr noundef align 8 dereferenceable(88) %14)
  store i1 %15, ptr %3, align 1
  br label %25

16:                                               ; preds = %2
  %17 = getelementptr inbounds nuw %class.IntegerTablesItem, ptr %6, i32 0, i32 1
  %18 = load i32, ptr %17, align 8
  %19 = load ptr, ptr %5, align 8
  %20 = getelementptr inbounds nuw %class.IntegerTablesItem, ptr %19, i32 0, i32 1
  %21 = load i32, ptr %20, align 8
  %22 = icmp ult i32 %18, %21
  br i1 %22, label %23, label %24

23:                                               ; preds = %16
  store i1 true, ptr %3, align 1
  br label %25

24:                                               ; preds = %16
  store i1 false, ptr %3, align 1
  br label %25

25:                                               ; preds = %24, %23, %13
  %26 = load i1, ptr %3, align 1
  ret i1 %26
}