; Function Attrs: mustprogress nounwind null_pointer_is_valid sspstrong uwtable
define noundef zeroext i1 @_ZNK17IntegerTablesItem8lessThanER19DissectorTablesItem(ptr noundef readonly align 8 captures(none) dereferenceable_or_null(92) %0, ptr noundef readonly align 8 captures(none) dereferenceable(88) %1) unnamed_addr #1 align 2 {
  %3 = getelementptr inbounds nuw i8, ptr %0, i64 88
  %4 = load i32, ptr %3, align 8
  %5 = getelementptr inbounds nuw i8, ptr %1, i64 88
  %6 = load i32, ptr %5, align 8
  %7 = icmp eq i32 %4, %6
  br i1 %7, label %8, label %10

8:                                                ; preds = %2
  %9 = tail call noundef zeroext i1 @_ZNK19DissectorTablesItem8lessThanERS_(ptr noundef align 8 dereferenceable_or_null(88) %0, ptr noundef align 8 dereferenceable(88) %1)
  br label %12

10:                                               ; preds = %2
  %11 = icmp ult i32 %4, %6
  br label %12

12:                                               ; preds = %10, %8
  %.0 = phi i1 [ %9, %8 ], [ %11, %10 ]
  ret i1 %.0
}